; ModuleID = '23/1076.c'
source_filename = "23/1076.c"
target datalayout = "e-m:e-p270:32:32-p271:32:32-p272:64:64-i64:64-f80:128-n8:16:32:64-S128"
target triple = "x86_64-pc-linux-gnu"

@.str = private unnamed_addr constant [3 x i8] c"%s\00", align 1
@.str.1 = private unnamed_addr constant [4 x i8] c"%s \00", align 1

; Function Attrs: noinline nounwind uwtable
define dso_local void @main() #0 {
  %1 = alloca i32, align 4
  %2 = alloca [100 x i8*], align 16
  store i32 0, i32* %1, align 4
  %3 = call noalias i8* @malloc(i64 100) #3
  %4 = load i32, i32* %1, align 4
  %5 = sext i32 %4 to i64
  %6 = getelementptr inbounds [100 x i8*], [100 x i8*]* %2, i64 0, i64 %5
  store i8* %3, i8** %6, align 8
  br label %7

7:                                                ; preds = %14, %0
  %8 = load i32, i32* %1, align 4
  %9 = sext i32 %8 to i64
  %10 = getelementptr inbounds [100 x i8*], [100 x i8*]* %2, i64 0, i64 %9
  %11 = load i8*, i8** %10, align 8
  %12 = call i32 (i8*, ...) @__isoc99_scanf(i8* getelementptr inbounds ([3 x i8], [3 x i8]* @.str, i64 0, i64 0), i8* %11)
  %13 = icmp ne i32 %12, -1
  br i1 %13, label %14, label %21

14:                                               ; preds = %7
  %15 = load i32, i32* %1, align 4
  %16 = add nsw i32 %15, 1
  store i32 %16, i32* %1, align 4
  %17 = call noalias i8* @malloc(i64 100) #3
  %18 = load i32, i32* %1, align 4
  %19 = sext i32 %18 to i64
  %20 = getelementptr inbounds [100 x i8*], [100 x i8*]* %2, i64 0, i64 %19
  store i8* %17, i8** %20, align 8
  br label %7

21:                                               ; preds = %7
  %22 = load i32, i32* %1, align 4
  %23 = add nsw i32 %22, -1
  store i32 %23, i32* %1, align 4
  br label %24

24:                                               ; preds = %33, %21
  %25 = load i32, i32* %1, align 4
  %26 = icmp sgt i32 %25, 0
  br i1 %26, label %27, label %36

27:                                               ; preds = %24
  %28 = load i32, i32* %1, align 4
  %29 = sext i32 %28 to i64
  %30 = getelementptr inbounds [100 x i8*], [100 x i8*]* %2, i64 0, i64 %29
  %31 = load i8*, i8** %30, align 8
  %32 = call i32 (i8*, ...) @printf(i8* getelementptr inbounds ([4 x i8], [4 x i8]* @.str.1, i64 0, i64 0), i8* %31)
  br label %33

33:                                               ; preds = %27
  %34 = load i32, i32* %1, align 4
  %35 = add nsw i32 %34, -1
  store i32 %35, i32* %1, align 4
  br label %24

36:                                               ; preds = %24
  %37 = getelementptr inbounds [100 x i8*], [100 x i8*]* %2, i64 0, i64 0
  %38 = load i8*, i8** %37, align 16
  %39 = call i32 (i8*, ...) @printf(i8* getelementptr inbounds ([3 x i8], [3 x i8]* @.str, i64 0, i64 0), i8* %38)
  ret void
}

; Function Attrs: nounwind
declare dso_local noalias i8* @malloc(i64) #1

declare dso_local i32 @__isoc99_scanf(i8*, ...) #2

declare dso_local i32 @printf(i8*, ...) #2


!llvm.module.flags = !{!0}
!llvm.ident = !{!1}

!0 = !{i32 1, !"wchar_size", i32 4}
!1 = !{!"clang version 10.0.0-4ubuntu1 "}
